target datalayout = "e-m:e-p270:32:32-p271:32:32-p272:64:64-i64:64-i128:128-f80:128-n8:16:32:64-S128"
target triple = "x86_64-pc-linux-gnu"

@.str = private unnamed_addr constant [3 x i8] c"rb\00", align 1

; Function Attrs: nounwind uwtable
define i32 @wolfSSL_CertManagerVerifyBuffer(ptr noundef %0, ptr noundef %1, i64 noundef %2, i32 noundef %3) #0 {
  %5 = alloca ptr, align 8
  %6 = alloca ptr, align 8
  %7 = alloca i64, align 8
  %8 = alloca i32, align 4
  %9 = alloca i32, align 4
  store ptr %0, ptr %5, align 8, !tbaa !9
  store ptr %1, ptr %6, align 8, !tbaa !21
  store i64 %2, ptr %7, align 8, !tbaa !22
  store i32 %3, ptr %8, align 4, !tbaa !7
  call void @llvm.lifetime.start.p0(i64 4, ptr %9) #9
  br label %10

10:                                               ; preds = %4
  br label %11

11:                                               ; preds = %10
  br label %12

12:                                               ; preds = %11
  %13 = load ptr, ptr %5, align 8, !tbaa !9
  %14 = icmp eq ptr %13, null
  br i1 %14, label %21, label %15

15:                                               ; preds = %12
  %16 = load ptr, ptr %6, align 8, !tbaa !21
  %17 = icmp eq ptr %16, null
  br i1 %17, label %21, label %18

18:                                               ; preds = %15
  %19 = load i64, ptr %7, align 8, !tbaa !22
  %20 = icmp sle i64 %19, 0
  br i1 %20, label %21, label %22

21:                                               ; preds = %18, %15, %12
  store i32 -173, ptr %9, align 4, !tbaa !7
  br label %36

22:                                               ; preds = %18
  %23 = load i32, ptr %8, align 4, !tbaa !7
  %24 = icmp ne i32 %23, 2
  br i1 %24, label %25, label %29

25:                                               ; preds = %22
  %26 = load i32, ptr %8, align 4, !tbaa !7
  %27 = icmp ne i32 %26, 1
  br i1 %27, label %28, label %29

28:                                               ; preds = %25
  store i32 -462, ptr %9, align 4, !tbaa !7
  br label %35

29:                                               ; preds = %25, %22
  %30 = load ptr, ptr %5, align 8, !tbaa !9
  %31 = load ptr, ptr %6, align 8, !tbaa !21
  %32 = load i64, ptr %7, align 8, !tbaa !22
  %33 = load i32, ptr %8, align 4, !tbaa !7
  %34 = call i32 @CM_VerifyBuffer_ex(ptr noundef %30, ptr noundef %31, i64 noundef %32, i32 noundef %33, i32 noundef 0)
  store i32 %34, ptr %9, align 4, !tbaa !7
  br label %35

35:                                               ; preds = %29, %28
  br label %36

36:                                               ; preds = %35, %21
  %37 = load i32, ptr %9, align 4, !tbaa !7
  call void @llvm.lifetime.end.p0(i64 4, ptr %9) #9
  ret i32 %37
}

; Function Attrs: nounwind uwtable
define internal i32 @wolfssl_file_len(ptr noundef %0, ptr noundef %1) #0 {
  %3 = alloca ptr, align 8
  %4 = alloca ptr, align 8
  %5 = alloca i32, align 4
  %6 = alloca i64, align 8
  %7 = alloca i64, align 8
  store ptr %0, ptr %3, align 8, !tbaa !49
  store ptr %1, ptr %4, align 8, !tbaa !51
  call void @llvm.lifetime.start.p0(i64 4, ptr %5) #9
  store i32 0, ptr %5, align 4, !tbaa !7
  call void @llvm.lifetime.start.p0(i64 8, ptr %6) #9
  store i64 0, ptr %6, align 8, !tbaa !22
  call void @llvm.lifetime.start.p0(i64 8, ptr %7) #9
  store i64 0, ptr %7, align 8, !tbaa !22
  %8 = load ptr, ptr %3, align 8, !tbaa !49
  %9 = icmp eq ptr %8, null
  br i1 %9, label %10, label %11

10:                                               ; preds = %2
  store i32 -463, ptr %5, align 4, !tbaa !7
  br label %11

11:                                               ; preds = %10, %2
  %12 = load i32, ptr %5, align 4, !tbaa !7
  %13 = icmp eq i32 %12, 0
  br i1 %13, label %14, label %21

14:                                               ; preds = %11
  %15 = load ptr, ptr %3, align 8, !tbaa !49
  %16 = call i64 @ftell(ptr noundef %15)
  store i64 %16, ptr %7, align 8, !tbaa !22
  %17 = load i64, ptr %7, align 8, !tbaa !22
  %18 = icmp slt i64 %17, 0
  br i1 %18, label %19, label %20

19:                                               ; preds = %14
  store i32 -463, ptr %5, align 4, !tbaa !7
  br label %20

20:                                               ; preds = %19, %14
  br label %21

21:                                               ; preds = %20, %11
  %22 = load i32, ptr %5, align 4, !tbaa !7
  %23 = icmp eq i32 %22, 0
  br i1 %23, label %24, label %29

24:                                               ; preds = %21
  %25 = load ptr, ptr %3, align 8, !tbaa !49
  %26 = call i32 @fseek(ptr noundef %25, i64 noundef 0, i32 noundef 2)
  %27 = icmp ne i32 %26, 0
  br i1 %27, label %28, label %29

28:                                               ; preds = %24
  store i32 -463, ptr %5, align 4, !tbaa !7
  br label %29

29:                                               ; preds = %28, %24, %21
  %30 = load i32, ptr %5, align 4, !tbaa !7
  %31 = icmp eq i32 %30, 0
  br i1 %31, label %32, label %41

32:                                               ; preds = %29
  %33 = load ptr, ptr %3, align 8, !tbaa !49
  %34 = call i64 @ftell(ptr noundef %33)
  %35 = load i64, ptr %7, align 8, !tbaa !22
  %36 = sub nsw i64 %34, %35
  store i64 %36, ptr %6, align 8, !tbaa !22
  %37 = load i64, ptr %6, align 8, !tbaa !22
  %38 = icmp slt i64 %37, 0
  br i1 %38, label %39, label %40

39:                                               ; preds = %32
  store i32 -463, ptr %5, align 4, !tbaa !7
  br label %40

40:                                               ; preds = %39, %32
  br label %41

41:                                               ; preds = %40, %29
  %42 = load i32, ptr %5, align 4, !tbaa !7
  %43 = icmp eq i32 %42, 0
  br i1 %43, label %44, label %50

44:                                               ; preds = %41
  %45 = load ptr, ptr %3, align 8, !tbaa !49
  %46 = load i64, ptr %7, align 8, !tbaa !22
  %47 = call i32 @fseek(ptr noundef %45, i64 noundef %46, i32 noundef 0)
  %48 = icmp ne i32 %47, 0
  br i1 %48, label %49, label %50

49:                                               ; preds = %44
  store i32 -463, ptr %5, align 4, !tbaa !7
  br label %50

50:                                               ; preds = %49, %44, %41
  %51 = load i32, ptr %5, align 4, !tbaa !7
  %52 = icmp eq i32 %51, 0
  br i1 %52, label %53, label %60

53:                                               ; preds = %50
  %54 = load i64, ptr %6, align 8, !tbaa !22
  %55 = icmp sgt i64 %54, 4194304
  br i1 %55, label %59, label %56

56:                                               ; preds = %53
  %57 = load i64, ptr %6, align 8, !tbaa !22
  %58 = icmp sle i64 %57, 0
  br i1 %58, label %59, label %60

59:                                               ; preds = %56, %53
  store i32 -463, ptr %5, align 4, !tbaa !7
  br label %60

60:                                               ; preds = %59, %56, %50
  %61 = load i32, ptr %5, align 4, !tbaa !7
  %62 = icmp eq i32 %61, 0
  br i1 %62, label %63, label %66

63:                                               ; preds = %60
  %64 = load i64, ptr %6, align 8, !tbaa !22
  %65 = load ptr, ptr %4, align 8, !tbaa !51
  store i64 %64, ptr %65, align 8, !tbaa !22
  br label %66

66:                                               ; preds = %63, %60
  %67 = load i32, ptr %5, align 4, !tbaa !7
  call void @llvm.lifetime.end.p0(i64 8, ptr %7) #9
  call void @llvm.lifetime.end.p0(i64 8, ptr %6) #9
  call void @llvm.lifetime.end.p0(i64 4, ptr %5) #9
  ret i32 %67
}

; Function Attrs: nounwind uwtable
define i32 @wolfSSL_CertManagerVerify(ptr noundef %0, ptr noundef %1, i32 noundef %2) #0 {
  %4 = alloca ptr, align 8
  %5 = alloca ptr, align 8
  %6 = alloca i32, align 4
  %7 = alloca i32, align 4
  %8 = alloca [1024 x i8], align 16
  %9 = alloca ptr, align 8
  %10 = alloca i64, align 8
  %11 = alloca ptr, align 8
  %12 = alloca ptr, align 8
  store ptr %0, ptr %4, align 8, !tbaa !9
  store ptr %1, ptr %5, align 8, !tbaa !21
  store i32 %2, ptr %6, align 4, !tbaa !7
  call void @llvm.lifetime.start.p0(i64 4, ptr %7) #9
  store i32 1, ptr %7, align 4, !tbaa !7
  call void @llvm.lifetime.start.p0(i64 1024, ptr %8) #9
  call void @llvm.lifetime.start.p0(i64 8, ptr %9) #9
  store ptr null, ptr %9, align 8, !tbaa !21
  call void @llvm.lifetime.start.p0(i64 8, ptr %10) #9
  store i64 0, ptr %10, align 8, !tbaa !22
  call void @llvm.lifetime.start.p0(i64 8, ptr %11) #9
  store ptr null, ptr %11, align 8, !tbaa !49
  br label %13

13:                                               ; preds = %3
  br label %14

14:                                               ; preds = %13
  br label %15

15:                                               ; preds = %14
  %16 = getelementptr inbounds [1024 x i8], ptr %8, i64 0, i64 0
  store ptr %16, ptr %9, align 8, !tbaa !21
  %17 = load ptr, ptr %4, align 8, !tbaa !9
  %18 = icmp eq ptr %17, null
  br i1 %18, label %22, label %19

19:                                               ; preds = %15
  %20 = load ptr, ptr %5, align 8, !tbaa !21
  %21 = icmp eq ptr %20, null
  br i1 %21, label %22, label %23

22:                                               ; preds = %19, %15
  store i32 -173, ptr %7, align 4, !tbaa !7
  br label %23

23:                                               ; preds = %22, %19
  %24 = load i32, ptr %7, align 4, !tbaa !7
  %25 = icmp eq i32 %24, 1
  br i1 %25, label %26, label %31

26:                                               ; preds = %23
  %27 = load ptr, ptr %5, align 8, !tbaa !21
  %28 = call noalias ptr @fopen(ptr noundef %27, ptr noundef @.str)
  store ptr %28, ptr %11, align 8, !tbaa !49
  %29 = icmp eq ptr %28, null
  br i1 %29, label %30, label %31

30:                                               ; preds = %26
  store i32 -463, ptr %7, align 4, !tbaa !7
  br label %31

31:                                               ; preds = %30, %26, %23
  %32 = load i32, ptr %7, align 4, !tbaa !7
  %33 = icmp eq i32 %32, 1
  br i1 %33, label %34, label %41

34:                                               ; preds = %31
  %35 = load ptr, ptr %11, align 8, !tbaa !49
  %36 = call i32 @wolfssl_file_len(ptr noundef %35, ptr noundef %10)
  store i32 %36, ptr %7, align 4, !tbaa !7
  %37 = load i32, ptr %7, align 4, !tbaa !7
  %38 = icmp eq i32 %37, 0
  br i1 %38, label %39, label %40

39:                                               ; preds = %34
  store i32 1, ptr %7, align 4, !tbaa !7
  br label %40

40:                                               ; preds = %39, %34
  br label %41

41:                                               ; preds = %40, %31
  %42 = load i32, ptr %7, align 4, !tbaa !7
  %43 = icmp eq i32 %42, 1
  br i1 %43, label %44, label %57

44:                                               ; preds = %41
  %45 = load i64, ptr %10, align 8, !tbaa !22
  %46 = icmp sgt i64 %45, 1024
  br i1 %46, label %47, label %57

47:                                               ; preds = %44
  br label %48

48:                                               ; preds = %47
  br label %49

49:                                               ; preds = %48
  br label %50

50:                                               ; preds = %49
  %51 = load i64, ptr %10, align 8, !tbaa !22
  %52 = call ptr @wolfSSL_Malloc(i64 noundef %51)
  store ptr %52, ptr %9, align 8, !tbaa !21
  %53 = load ptr, ptr %9, align 8, !tbaa !21
  %54 = icmp eq ptr %53, null
  br i1 %54, label %55, label %56

55:                                               ; preds = %50
  store i32 -463, ptr %7, align 4, !tbaa !7
  br label %56

56:                                               ; preds = %55, %50
  br label %57

57:                                               ; preds = %56, %44, %41
  %58 = load i32, ptr %7, align 4, !tbaa !7
  %59 = icmp eq i32 %58, 1
  br i1 %59, label %60, label %68

60:                                               ; preds = %57
  %61 = load ptr, ptr %9, align 8, !tbaa !21
  %62 = load i64, ptr %10, align 8, !tbaa !22
  %63 = load ptr, ptr %11, align 8, !tbaa !49
  %64 = call i64 @fread(ptr noundef %61, i64 noundef 1, i64 noundef %62, ptr noundef %63)
  %65 = load i64, ptr %10, align 8, !tbaa !22
  %66 = icmp ne i64 %64, %65
  br i1 %66, label %67, label %68

67:                                               ; preds = %60
  store i32 -463, ptr %7, align 4, !tbaa !7
  br label %68

68:                                               ; preds = %67, %60, %57
  %69 = load ptr, ptr %11, align 8, !tbaa !49
  %70 = icmp ne ptr %69, null
  br i1 %70, label %71, label %74

71:                                               ; preds = %68
  %72 = load ptr, ptr %11, align 8, !tbaa !49
  %73 = call i32 @fclose(ptr noundef %72)
  br label %74

74:                                               ; preds = %71, %68
  %75 = load i32, ptr %7, align 4, !tbaa !7
  %76 = icmp eq i32 %75, 1
  br i1 %76, label %77, label %83

77:                                               ; preds = %74
  %78 = load ptr, ptr %4, align 8, !tbaa !9
  %79 = load ptr, ptr %9, align 8, !tbaa !21
  %80 = load i64, ptr %10, align 8, !tbaa !22
  %81 = load i32, ptr %6, align 4, !tbaa !7
  %82 = call i32 @wolfSSL_CertManagerVerifyBuffer(ptr noundef %78, ptr noundef %79, i64 noundef %80, i32 noundef %81)
  store i32 %82, ptr %7, align 4, !tbaa !7
  br label %83

83:                                               ; preds = %77, %74
  %84 = load ptr, ptr %9, align 8, !tbaa !21
  %85 = getelementptr inbounds [1024 x i8], ptr %8, i64 0, i64 0
  %86 = icmp ne ptr %84, %85
  br i1 %86, label %87, label %101

87:                                               ; preds = %83
  %88 = load ptr, ptr %4, align 8, !tbaa !9
  %89 = icmp ne ptr %88, null
  br i1 %89, label %90, label %100

90:                                               ; preds = %87
  br label %91

91:                                               ; preds = %90
  call void @llvm.lifetime.start.p0(i64 8, ptr %12) #9
  %92 = load ptr, ptr %9, align 8, !tbaa !21
  store ptr %92, ptr %12, align 8, !tbaa !3
  %93 = load ptr, ptr %12, align 8, !tbaa !3
  %94 = icmp ne ptr %93, null
  br i1 %94, label %95, label %97

95:                                               ; preds = %91
  %96 = load ptr, ptr %12, align 8, !tbaa !3
  call void @wolfSSL_Free(ptr noundef %96)
  br label %97

97:                                               ; preds = %95, %91
  call void @llvm.lifetime.end.p0(i64 8, ptr %12) #9
  br label %98

98:                                               ; preds = %97
  br label %99

99:                                               ; preds = %98
  br label %100

100:                                              ; preds = %99, %87
  br label %101

101:                                              ; preds = %100, %83
  %102 = load i32, ptr %7, align 4, !tbaa !7
  call void @llvm.lifetime.end.p0(i64 8, ptr %11) #9
  call void @llvm.lifetime.end.p0(i64 8, ptr %10) #9
  call void @llvm.lifetime.end.p0(i64 8, ptr %9) #9
  call void @llvm.lifetime.end.p0(i64 1024, ptr %8) #9
  call void @llvm.lifetime.end.p0(i64 4, ptr %7) #9
  ret i32 %102
}