; Function Attrs: nounwind uwtable
define range(i32 1, 0) i32 @wolfSSL_CertManagerVerify(ptr noundef %0, ptr noundef readonly captures(address_is_null) %1, i32 noundef %2) local_unnamed_addr #0 {
  %4 = alloca [1024 x i8], align 16
  call void @llvm.lifetime.start.p0(i64 1024, ptr nonnull %4) #22
  %5 = icmp ne ptr %0, null
  %6 = icmp ne ptr %1, null
  %or.cond.not = and i1 %5, %6
  br i1 %or.cond.not, label %7, label %wolfSSL_CertManagerVerifyBuffer.exit.thread

7:                                                ; preds = %3
  %8 = tail call noalias ptr @fopen(ptr noundef nonnull %1, ptr noundef nonnull @.str)
  %9 = icmp eq ptr %8, null
  br i1 %9, label %wolfSSL_CertManagerVerifyBuffer.exit.thread, label %10

10:                                               ; preds = %7
  %11 = tail call i64 @ftell(ptr noundef nonnull %8)
  %12 = icmp slt i64 %11, 0
  br i1 %12, label %.thread118, label %.thread.i

.thread.i:                                        ; preds = %10
  %13 = tail call i32 @fseek(ptr noundef nonnull %8, i64 noundef 0, i32 noundef 2)
  %.not26.i = icmp eq i32 %13, 0
  br i1 %.not26.i, label %14, label %.thread118

14:                                               ; preds = %.thread.i
  %15 = tail call i64 @ftell(ptr noundef nonnull %8)
  %16 = sub nsw i64 %15, %11
  %17 = icmp slt i64 %16, 0
  br i1 %17, label %.thread118, label %18

18:                                               ; preds = %14
  %19 = tail call i32 @fseek(ptr noundef nonnull %8, i64 noundef %11, i32 noundef 0)
  %.not27.i = icmp ne i32 %19, 0
  %20 = add nsw i64 %16, -4194305
  %or.cond.i = icmp ult i64 %20, -4194304
  %or.cond62.i = select i1 %.not27.i, i1 true, i1 %or.cond.i
  br i1 %or.cond62.i, label %.thread118, label %21

21:                                               ; preds = %18
  %22 = icmp samesign ugt i64 %16, 1024
  br i1 %22, label %23, label %27

23:                                               ; preds = %21
  %24 = tail call ptr @wolfSSL_Malloc(i64 noundef %16) #22
  %25 = icmp eq ptr %24, null
  br i1 %25, label %.thread118, label %27

.thread118:                                       ; preds = %23, %.thread.i, %18, %14, %10
  %.0298188.ph = phi ptr [ null, %23 ], [ %4, %.thread.i ], [ %4, %18 ], [ %4, %14 ], [ %4, %10 ]
  %26 = tail call i32 @fclose(ptr noundef nonnull %8)
  br label %wolfSSL_CertManagerVerifyBuffer.exit

27:                                               ; preds = %23, %21
  %.029 = phi ptr [ %4, %21 ], [ %24, %23 ]
  %28 = call i64 @fread(ptr noundef nonnull %.029, i64 noundef 1, i64 noundef %16, ptr noundef nonnull %8)
  %.not = icmp eq i64 %28, %16
  %29 = tail call i32 @fclose(ptr noundef nonnull %8)
  br i1 %.not, label %30, label %wolfSSL_CertManagerVerifyBuffer.exit

30:                                               ; preds = %27
  %31 = add i32 %2, -3
  %or.cond5.i = icmp ult i32 %31, -2
  br i1 %or.cond5.i, label %wolfSSL_CertManagerVerifyBuffer.exit, label %32

32:                                               ; preds = %30
  %33 = call i32 @CM_VerifyBuffer_ex(ptr noundef nonnull %0, ptr noundef nonnull %.029, i64 noundef %16, i32 noundef %2, i32 noundef 0)
  br label %wolfSSL_CertManagerVerifyBuffer.exit

wolfSSL_CertManagerVerifyBuffer.exit:             ; preds = %32, %30, %.thread118, %27
  %.0298189116 = phi ptr [ %.029, %27 ], [ %.0298188.ph, %.thread118 ], [ %.029, %30 ], [ %.029, %32 ]
  %.5 = phi i32 [ -463, %27 ], [ -463, %.thread118 ], [ -462, %30 ], [ %33, %32 ]
  %34 = icmp ne ptr %.0298189116, %4
  %.not37 = icmp ne ptr %.0298189116, null
  %35 = and i1 %34, %.not37
  br i1 %35, label %36, label %wolfSSL_CertManagerVerifyBuffer.exit.thread

36:                                               ; preds = %wolfSSL_CertManagerVerifyBuffer.exit
  call void @wolfSSL_Free(ptr noundef nonnull %.0298189116) #22
  br label %wolfSSL_CertManagerVerifyBuffer.exit.thread

wolfSSL_CertManagerVerifyBuffer.exit.thread:      ; preds = %3, %7, %36, %wolfSSL_CertManagerVerifyBuffer.exit
  %.5129 = phi i32 [ %.5, %36 ], [ %.5, %wolfSSL_CertManagerVerifyBuffer.exit ], [ -463, %7 ], [ -173, %3 ]
  call void @llvm.lifetime.end.p0(i64 1024, ptr nonnull %4) #22
  ret i32 %.5129
}